target datalayout = "e-m:e-p270:32:32-p271:32:32-p272:64:64-i64:64-i128:128-f80:128-n8:16:32:64-S128"
target triple = "x86_64-pc-linux-gnu"

%struct.linenoiseState = type { i32, i32, ptr, i64, ptr, ptr, i64, i64, i64, i64, i64, i64, i32 }

; Function Attrs: nounwind uwtable
define dso_local void @linenoiseEditDeletePrevWord(ptr noundef %0) #0 {
  %2 = alloca ptr, align 8
  %3 = alloca i64, align 8
  %4 = alloca i64, align 8
  store ptr %0, ptr %2, align 8, !tbaa !23
  call void @llvm.lifetime.start.p0(i64 8, ptr %3) #12
  %5 = load ptr, ptr %2, align 8, !tbaa !23
  %6 = getelementptr inbounds nuw %struct.linenoiseState, ptr %5, i32 0, i32 7
  %7 = load i64, ptr %6, align 8, !tbaa !34
  store i64 %7, ptr %3, align 8, !tbaa !14
  call void @llvm.lifetime.start.p0(i64 8, ptr %4) #12
  br label %8

8:                                                ; preds = %27, %1
  %9 = load ptr, ptr %2, align 8, !tbaa !23
  %10 = getelementptr inbounds nuw %struct.linenoiseState, ptr %9, i32 0, i32 7
  %11 = load i64, ptr %10, align 8, !tbaa !34
  %12 = icmp ugt i64 %11, 0
  br i1 %12, label %13, label %25

13:                                               ; preds = %8
  %14 = load ptr, ptr %2, align 8, !tbaa !23
  %15 = getelementptr inbounds nuw %struct.linenoiseState, ptr %14, i32 0, i32 2
  %16 = load ptr, ptr %15, align 8, !tbaa !28
  %17 = load ptr, ptr %2, align 8, !tbaa !23
  %18 = getelementptr inbounds nuw %struct.linenoiseState, ptr %17, i32 0, i32 7
  %19 = load i64, ptr %18, align 8, !tbaa !34
  %20 = sub i64 %19, 1
  %21 = getelementptr inbounds nuw i8, ptr %16, i64 %20
  %22 = load i8, ptr %21, align 1, !tbaa !29
  %23 = sext i8 %22 to i32
  %24 = icmp eq i32 %23, 32
  br label %25

25:                                               ; preds = %13, %8
  %26 = phi i1 [ false, %8 ], [ %24, %13 ]
  br i1 %26, label %27, label %32

27:                                               ; preds = %25
  %28 = load ptr, ptr %2, align 8, !tbaa !23
  %29 = getelementptr inbounds nuw %struct.linenoiseState, ptr %28, i32 0, i32 7
  %30 = load i64, ptr %29, align 8, !tbaa !34
  %31 = add i64 %30, -1
  store i64 %31, ptr %29, align 8, !tbaa !34
  br label %8, !llvm.loop !38

32:                                               ; preds = %25
  br label %33

33:                                               ; preds = %52, %32
  %34 = load ptr, ptr %2, align 8, !tbaa !23
  %35 = getelementptr inbounds nuw %struct.linenoiseState, ptr %34, i32 0, i32 7
  %36 = load i64, ptr %35, align 8, !tbaa !34
  %37 = icmp ugt i64 %36, 0
  br i1 %37, label %38, label %50

38:                                               ; preds = %33
  %39 = load ptr, ptr %2, align 8, !tbaa !23
  %40 = getelementptr inbounds nuw %struct.linenoiseState, ptr %39, i32 0, i32 2
  %41 = load ptr, ptr %40, align 8, !tbaa !28
  %42 = load ptr, ptr %2, align 8, !tbaa !23
  %43 = getelementptr inbounds nuw %struct.linenoiseState, ptr %42, i32 0, i32 7
  %44 = load i64, ptr %43, align 8, !tbaa !34
  %45 = sub i64 %44, 1
  %46 = getelementptr inbounds nuw i8, ptr %41, i64 %45
  %47 = load i8, ptr %46, align 1, !tbaa !29
  %48 = sext i8 %47 to i32
  %49 = icmp ne i32 %48, 32
  br label %50

50:                                               ; preds = %38, %33
  %51 = phi i1 [ false, %33 ], [ %49, %38 ]
  br i1 %51, label %52, label %57

52:                                               ; preds = %50
  %53 = load ptr, ptr %2, align 8, !tbaa !23
  %54 = getelementptr inbounds nuw %struct.linenoiseState, ptr %53, i32 0, i32 7
  %55 = load i64, ptr %54, align 8, !tbaa !34
  %56 = add i64 %55, -1
  store i64 %56, ptr %54, align 8, !tbaa !34
  br label %33, !llvm.loop !40

57:                                               ; preds = %50
  %58 = load i64, ptr %3, align 8, !tbaa !14
  %59 = load ptr, ptr %2, align 8, !tbaa !23
  %60 = getelementptr inbounds nuw %struct.linenoiseState, ptr %59, i32 0, i32 7
  %61 = load i64, ptr %60, align 8, !tbaa !34
  %62 = sub i64 %58, %61
  store i64 %62, ptr %4, align 8, !tbaa !14
  %63 = load ptr, ptr %2, align 8, !tbaa !23
  %64 = getelementptr inbounds nuw %struct.linenoiseState, ptr %63, i32 0, i32 2
  %65 = load ptr, ptr %64, align 8, !tbaa !28
  %66 = load ptr, ptr %2, align 8, !tbaa !23
  %67 = getelementptr inbounds nuw %struct.linenoiseState, ptr %66, i32 0, i32 7
  %68 = load i64, ptr %67, align 8, !tbaa !34
  %69 = getelementptr inbounds nuw i8, ptr %65, i64 %68
  %70 = load ptr, ptr %2, align 8, !tbaa !23
  %71 = getelementptr inbounds nuw %struct.linenoiseState, ptr %70, i32 0, i32 2
  %72 = load ptr, ptr %71, align 8, !tbaa !28
  %73 = load i64, ptr %3, align 8, !tbaa !14
  %74 = getelementptr inbounds nuw i8, ptr %72, i64 %73
  %75 = load ptr, ptr %2, align 8, !tbaa !23
  %76 = getelementptr inbounds nuw %struct.linenoiseState, ptr %75, i32 0, i32 9
  %77 = load i64, ptr %76, align 8, !tbaa !25
  %78 = load i64, ptr %3, align 8, !tbaa !14
  %79 = sub i64 %77, %78
  %80 = add i64 %79, 1
  call void @llvm.memmove.p0.p0.i64(ptr align 1 %69, ptr align 1 %74, i64 %80, i1 false)
  %81 = load i64, ptr %4, align 8, !tbaa !14
  %82 = load ptr, ptr %2, align 8, !tbaa !23
  %83 = getelementptr inbounds nuw %struct.linenoiseState, ptr %82, i32 0, i32 9
  %84 = load i64, ptr %83, align 8, !tbaa !25
  %85 = sub i64 %84, %81
  store i64 %85, ptr %83, align 8, !tbaa !25
  %86 = load ptr, ptr %2, align 8, !tbaa !23
  call void @refreshLine(ptr noundef %86)
  call void @llvm.lifetime.end.p0(i64 8, ptr %4) #12
  call void @llvm.lifetime.end.p0(i64 8, ptr %3) #12
  ret void
}