; Function Attrs: nounwind uwtable
define dso_local void @linenoiseEditDeletePrevWord(ptr noundef captures(none) %0) local_unnamed_addr #10 {
  %2 = getelementptr inbounds nuw i8, ptr %0, i64 48
  %3 = load i64, ptr %2, align 8, !tbaa !26
  %.not25 = icmp eq i64 %3, 0
  br i1 %.not25, label %.critedge..critedge2_crit_edge, label %.lr.ph

.lr.ph:                                           ; preds = %1
  %4 = getelementptr inbounds nuw i8, ptr %0, i64 8
  %5 = load ptr, ptr %4, align 8, !tbaa !20
  %invariant.gep = getelementptr i8, ptr %5, i64 -1
  br label %6

6:                                                ; preds = %.lr.ph, %10
  %7 = phi i64 [ %3, %.lr.ph ], [ %11, %10 ]
  %gep = getelementptr i8, ptr %invariant.gep, i64 %7
  %8 = load i8, ptr %gep, align 1, !tbaa !21
  %9 = icmp eq i8 %8, 32
  br i1 %9, label %10, label %.lr.ph28

10:                                               ; preds = %6
  %11 = add i64 %7, -1
  store i64 %11, ptr %2, align 8, !tbaa !26
  %.not = icmp eq i64 %11, 0
  br i1 %.not, label %.critedge..critedge2_crit_edge, label %6, !llvm.loop !42

.critedge..critedge2_crit_edge:                   ; preds = %10, %1
  %.phi.trans.insert = getelementptr inbounds nuw i8, ptr %0, i64 8
  %.pre = load ptr, ptr %.phi.trans.insert, align 8, !tbaa !20
  br label %.critedge2

.lr.ph28:                                         ; preds = %6
  %12 = getelementptr inbounds nuw i8, ptr %0, i64 8
  %13 = load ptr, ptr %12, align 8, !tbaa !20
  %invariant.gep31 = getelementptr i8, ptr %13, i64 -1
  br label %14

14:                                               ; preds = %.lr.ph28, %17
  %15 = phi i64 [ %7, %.lr.ph28 ], [ %18, %17 ]
  %gep32 = getelementptr i8, ptr %invariant.gep31, i64 %15
  %16 = load i8, ptr %gep32, align 1, !tbaa !21
  %.not23 = icmp eq i8 %16, 32
  br i1 %.not23, label %.critedge2, label %17

17:                                               ; preds = %14
  %18 = add i64 %15, -1
  store i64 %18, ptr %2, align 8, !tbaa !26
  %.not22 = icmp eq i64 %18, 0
  br i1 %.not22, label %.critedge2, label %14, !llvm.loop !43

.critedge2:                                       ; preds = %14, %17, %.critedge..critedge2_crit_edge
  %19 = phi ptr [ %.pre, %.critedge..critedge2_crit_edge ], [ %13, %17 ], [ %13, %14 ]
  %.lcssa = phi i64 [ 0, %.critedge..critedge2_crit_edge ], [ %15, %14 ], [ 0, %17 ]
  %.neg = sub i64 %.lcssa, %3
  %20 = getelementptr inbounds nuw i8, ptr %19, i64 %.lcssa
  %21 = getelementptr inbounds nuw i8, ptr %19, i64 %3
  %22 = getelementptr inbounds nuw i8, ptr %0, i64 64
  %23 = load i64, ptr %22, align 8, !tbaa !17
  %reass.sub = sub i64 %23, %3
  %24 = add i64 %reass.sub, 1
  tail call void @llvm.memmove.p0.p0.i64(ptr align 1 %20, ptr align 1 %21, i64 %24, i1 false)
  %25 = load i64, ptr %22, align 8, !tbaa !17
  %26 = add i64 %.neg, %25
  store i64 %26, ptr %22, align 8, !tbaa !17
  tail call fastcc void @refreshLine(ptr noundef nonnull %0)
  ret void
}